; ModuleID = '19/862.c'
source_filename = "19/862.c"
target datalayout = "e-m:e-p270:32:32-p271:32:32-p272:64:64-i64:64-f80:128-n8:16:32:64-S128"
target triple = "x86_64-pc-linux-gnu"

@.str = private unnamed_addr constant [3 x i8] c"%s\00", align 1
@.str.1 = private unnamed_addr constant [1 x i8] zeroinitializer, align 1

; Function Attrs: noinline nounwind uwtable
define dso_local i32 @main() #0 {
  %1 = alloca i32, align 4
  %2 = alloca [101 x i8], align 16
  %3 = alloca [101 x i8], align 16
  %4 = alloca [101 x i8], align 16
  %5 = alloca [101 x i32], align 16
  %6 = alloca i32, align 4
  %7 = alloca i32, align 4
  %8 = alloca i32, align 4
  %9 = alloca i32, align 4
  %10 = alloca i32, align 4
  %11 = alloca i32, align 4
  store i32 0, i32* %1, align 4
  %12 = getelementptr inbounds [101 x i32], [101 x i32]* %5, i64 0, i64 0
  %13 = bitcast i32* %12 to i8*
  call void @llvm.memset.p0i8.i64(i8* align 16 %13, i8 1, i64 404, i1 false)
  %14 = getelementptr inbounds [101 x i8], [101 x i8]* %2, i64 0, i64 0
  %15 = call i32 (i8*, ...) bitcast (i32 (...)* @gets to i32 (i8*, ...)*)(i8* %14)
  %16 = getelementptr inbounds [101 x i8], [101 x i8]* %3, i64 0, i64 0
  %17 = call i32 (i8*, ...) bitcast (i32 (...)* @gets to i32 (i8*, ...)*)(i8* %16)
  %18 = getelementptr inbounds [101 x i8], [101 x i8]* %4, i64 0, i64 0
  %19 = call i32 (i8*, ...) bitcast (i32 (...)* @gets to i32 (i8*, ...)*)(i8* %18)
  %20 = getelementptr inbounds [101 x i8], [101 x i8]* %2, i64 0, i64 0
  %21 = call i64 @strlen(i8* %20) #4
  %22 = trunc i64 %21 to i32
  store i32 %22, i32* %6, align 4
  %23 = getelementptr inbounds [101 x i8], [101 x i8]* %3, i64 0, i64 0
  %24 = call i64 @strlen(i8* %23) #4
  %25 = trunc i64 %24 to i32
  store i32 %25, i32* %7, align 4
  %26 = getelementptr inbounds [101 x i8], [101 x i8]* %4, i64 0, i64 0
  %27 = call i64 @strlen(i8* %26) #4
  %28 = trunc i64 %27 to i32
  store i32 %28, i32* %8, align 4
  store i32 0, i32* %9, align 4
  br label %29

29:                                               ; preds = %79, %0
  %30 = load i32, i32* %9, align 4
  %31 = load i32, i32* %6, align 4
  %32 = icmp slt i32 %30, %31
  br i1 %32, label %33, label %82

33:                                               ; preds = %29
  %34 = load i32, i32* %9, align 4
  %35 = icmp eq i32 %34, 0
  br i1 %35, label %44, label %36

36:                                               ; preds = %33
  %37 = load i32, i32* %9, align 4
  %38 = sub nsw i32 %37, 1
  %39 = sext i32 %38 to i64
  %40 = getelementptr inbounds [101 x i8], [101 x i8]* %2, i64 0, i64 %39
  %41 = load i8, i8* %40, align 1
  %42 = sext i8 %41 to i32
  %43 = icmp eq i32 %42, 32
  br i1 %43, label %44, label %78

44:                                               ; preds = %36, %33
  %45 = load i32, i32* %9, align 4
  %46 = load i32, i32* %7, align 4
  %47 = add nsw i32 %45, %46
  %48 = load i32, i32* %6, align 4
  %49 = icmp sle i32 %47, %48
  br i1 %49, label %50, label %78

50:                                               ; preds = %44
  store i32 0, i32* %10, align 4
  br label %51

51:                                               ; preds = %74, %50
  %52 = load i32, i32* %10, align 4
  %53 = load i32, i32* %7, align 4
  %54 = icmp slt i32 %52, %53
  br i1 %54, label %55, label %77

55:                                               ; preds = %51
  %56 = load i32, i32* %9, align 4
  %57 = load i32, i32* %10, align 4
  %58 = add nsw i32 %56, %57
  %59 = sext i32 %58 to i64
  %60 = getelementptr inbounds [101 x i8], [101 x i8]* %2, i64 0, i64 %59
  %61 = load i8, i8* %60, align 1
  %62 = sext i8 %61 to i32
  %63 = load i32, i32* %10, align 4
  %64 = sext i32 %63 to i64
  %65 = getelementptr inbounds [101 x i8], [101 x i8]* %3, i64 0, i64 %64
  %66 = load i8, i8* %65, align 1
  %67 = sext i8 %66 to i32
  %68 = icmp ne i32 %62, %67
  br i1 %68, label %69, label %73

69:                                               ; preds = %55
  %70 = load i32, i32* %9, align 4
  %71 = sext i32 %70 to i64
  %72 = getelementptr inbounds [101 x i32], [101 x i32]* %5, i64 0, i64 %71
  store i32 0, i32* %72, align 4
  br label %73

73:                                               ; preds = %69, %55
  br label %74

74:                                               ; preds = %73
  %75 = load i32, i32* %10, align 4
  %76 = add nsw i32 %75, 1
  store i32 %76, i32* %10, align 4
  br label %51

77:                                               ; preds = %51
  br label %78

78:                                               ; preds = %77, %44, %36
  br label %79

79:                                               ; preds = %78
  %80 = load i32, i32* %9, align 4
  %81 = add nsw i32 %80, 1
  store i32 %81, i32* %9, align 4
  br label %29

82:                                               ; preds = %29
  store i32 0, i32* %9, align 4
  br label %83

83:                                               ; preds = %132, %82
  %84 = load i32, i32* %9, align 4
  %85 = load i32, i32* %6, align 4
  %86 = icmp slt i32 %84, %85
  br i1 %86, label %87, label %135

87:                                               ; preds = %83
  %88 = load i32, i32* %9, align 4
  %89 = sext i32 %88 to i64
  %90 = getelementptr inbounds [101 x i32], [101 x i32]* %5, i64 0, i64 %89
  %91 = load i32, i32* %90, align 4
  %92 = icmp ne i32 %91, 0
  br i1 %92, label %119, label %93

93:                                               ; preds = %87
  %94 = load i32, i32* %9, align 4
  store i32 %94, i32* %10, align 4
  br label %95

95:                                               ; preds = %114, %93
  %96 = load i32, i32* %10, align 4
  %97 = load i32, i32* %6, align 4
  %98 = icmp slt i32 %96, %97
  br i1 %98, label %99, label %117

99:                                               ; preds = %95
  %100 = load i32, i32* %10, align 4
  %101 = sext i32 %100 to i64
  %102 = getelementptr inbounds [101 x i8], [101 x i8]* %2, i64 0, i64 %101
  %103 = load i8, i8* %102, align 1
  %104 = sext i8 %103 to i32
  %105 = call i32 @putchar(i32 %104)
  %106 = load i32, i32* %10, align 4
  %107 = sext i32 %106 to i64
  %108 = getelementptr inbounds [101 x i8], [101 x i8]* %2, i64 0, i64 %107
  %109 = load i8, i8* %108, align 1
  %110 = sext i8 %109 to i32
  %111 = icmp eq i32 %110, 32
  br i1 %111, label %112, label %113

112:                                              ; preds = %99
  br label %117

113:                                              ; preds = %99
  br label %114

114:                                              ; preds = %113
  %115 = load i32, i32* %10, align 4
  %116 = add nsw i32 %115, 1
  store i32 %116, i32* %10, align 4
  br label %95

117:                                              ; preds = %112, %95
  %118 = load i32, i32* %10, align 4
  store i32 %118, i32* %9, align 4
  br label %131

119:                                              ; preds = %87
  %120 = load i32, i32* %7, align 4
  %121 = load i32, i32* %9, align 4
  %122 = add nsw i32 %121, %120
  store i32 %122, i32* %9, align 4
  %123 = getelementptr inbounds [101 x i8], [101 x i8]* %4, i64 0, i64 0
  %124 = call i32 (i8*, ...) @printf(i8* getelementptr inbounds ([3 x i8], [3 x i8]* @.str, i64 0, i64 0), i8* %123)
  %125 = load i32, i32* %9, align 4
  %126 = load i32, i32* %6, align 4
  %127 = icmp slt i32 %125, %126
  br i1 %127, label %128, label %130

128:                                              ; preds = %119
  %129 = call i32 @putchar(i32 32)
  br label %130

130:                                              ; preds = %128, %119
  br label %131

131:                                              ; preds = %130, %117
  br label %132

132:                                              ; preds = %131
  %133 = load i32, i32* %9, align 4
  %134 = add nsw i32 %133, 1
  store i32 %134, i32* %9, align 4
  br label %83

135:                                              ; preds = %83
  %136 = call i32 @puts(i8* getelementptr inbounds ([1 x i8], [1 x i8]* @.str.1, i64 0, i64 0))
  ret i32 0
}

; Function Attrs: argmemonly nounwind willreturn
declare void @llvm.memset.p0i8.i64(i8* nocapture writeonly, i8, i64, i1 immarg) #1

declare dso_local i32 @gets(...) #2

; Function Attrs: nounwind readonly
declare dso_local i64 @strlen(i8*) #3

declare dso_local i32 @putchar(i32) #2

declare dso_local i32 @printf(i8*, ...) #2

declare dso_local i32 @puts(i8*) #2


!llvm.module.flags = !{!0}
!llvm.ident = !{!1}

!0 = !{i32 1, !"wchar_size", i32 4}
!1 = !{!"clang version 10.0.0-4ubuntu1 "}
